
GccApplication1.elf:     file format elf32-avr

Sections:
Idx Name          Size      VMA       LMA       File off  Algn
  0 .text         000001e4  00000000  00000000  00000074  2**1
                  CONTENTS, ALLOC, LOAD, READONLY, CODE
  1 .data         00000000  00800060  00800060  00000258  2**0
                  CONTENTS, ALLOC, LOAD, DATA
  2 .bss          00000008  00800060  00800060  00000258  2**0
                  ALLOC
  3 .comment      00000030  00000000  00000000  00000258  2**0
                  CONTENTS, READONLY
  4 .note.gnu.avr.deviceinfo 0000003c  00000000  00000000  00000288  2**2
                  CONTENTS, READONLY
  5 .debug_aranges 000001d0  00000000  00000000  000002c4  2**0
                  CONTENTS, READONLY, DEBUGGING
  6 .debug_info   00000ec3  00000000  00000000  00000494  2**0
                  CONTENTS, READONLY, DEBUGGING
  7 .debug_abbrev 000008e6  00000000  00000000  00001357  2**0
                  CONTENTS, READONLY, DEBUGGING
  8 .debug_line   000008e9  00000000  00000000  00001c3d  2**0
                  CONTENTS, READONLY, DEBUGGING
  9 .debug_frame  0000047c  00000000  00000000  00002528  2**2
                  CONTENTS, READONLY, DEBUGGING
 10 .debug_str    0000069c  00000000  00000000  000029a4  2**0
                  CONTENTS, READONLY, DEBUGGING
 11 .debug_loc    0000053a  00000000  00000000  00003040  2**0
                  CONTENTS, READONLY, DEBUGGING
 12 .debug_ranges 00000180  00000000  00000000  0000357a  2**0
                  CONTENTS, READONLY, DEBUGGING

Disassembly of section .text:

00000000 <__vectors>:
   0:	0c 94 2a 00 	jmp	0x54	; 0x54 <__ctors_end>
   4:	0c 94 71 00 	jmp	0xe2	; 0xe2 <__vector_1>
   8:	0c 94 98 00 	jmp	0x130	; 0x130 <__vector_2>
   c:	0c 94 47 00 	jmp	0x8e	; 0x8e <__bad_interrupt>
  10:	0c 94 47 00 	jmp	0x8e	; 0x8e <__bad_interrupt>
  14:	0c 94 47 00 	jmp	0x8e	; 0x8e <__bad_interrupt>
  18:	0c 94 47 00 	jmp	0x8e	; 0x8e <__bad_interrupt>
  1c:	0c 94 47 00 	jmp	0x8e	; 0x8e <__bad_interrupt>
  20:	0c 94 47 00 	jmp	0x8e	; 0x8e <__bad_interrupt>
  24:	0c 94 47 00 	jmp	0x8e	; 0x8e <__bad_interrupt>
  28:	0c 94 bf 00 	jmp	0x17e	; 0x17e <__vector_10>
  2c:	0c 94 c9 00 	jmp	0x192	; 0x192 <__vector_11>
  30:	0c 94 47 00 	jmp	0x8e	; 0x8e <__bad_interrupt>
  34:	0c 94 47 00 	jmp	0x8e	; 0x8e <__bad_interrupt>
  38:	0c 94 47 00 	jmp	0x8e	; 0x8e <__bad_interrupt>
  3c:	0c 94 47 00 	jmp	0x8e	; 0x8e <__bad_interrupt>
  40:	0c 94 4a 00 	jmp	0x94	; 0x94 <__vector_16>
  44:	0c 94 47 00 	jmp	0x8e	; 0x8e <__bad_interrupt>
  48:	0c 94 47 00 	jmp	0x8e	; 0x8e <__bad_interrupt>
  4c:	0c 94 47 00 	jmp	0x8e	; 0x8e <__bad_interrupt>
  50:	0c 94 47 00 	jmp	0x8e	; 0x8e <__bad_interrupt>

00000054 <__ctors_end>:
  54:	11 24       	eor	r1, r1
  56:	1f be       	out	0x3f, r1	; 63
  58:	cf e5       	ldi	r28, 0x5F	; 95
  5a:	d8 e0       	ldi	r29, 0x08	; 8
  5c:	de bf       	out	0x3e, r29	; 62
  5e:	cd bf       	out	0x3d, r28	; 61

00000060 <__do_copy_data>:
  60:	10 e0       	ldi	r17, 0x00	; 0
  62:	a0 e6       	ldi	r26, 0x60	; 96
  64:	b0 e0       	ldi	r27, 0x00	; 0
  66:	e4 ee       	ldi	r30, 0xE4	; 228
  68:	f1 e0       	ldi	r31, 0x01	; 1
  6a:	02 c0       	rjmp	.+4      	; 0x70 <__do_copy_data+0x10>
  6c:	05 90       	lpm	r0, Z+
  6e:	0d 92       	st	X+, r0
  70:	a0 36       	cpi	r26, 0x60	; 96
  72:	b1 07       	cpc	r27, r17
  74:	d9 f7       	brne	.-10     	; 0x6c <__do_copy_data+0xc>

00000076 <__do_clear_bss>:
  76:	20 e0       	ldi	r18, 0x00	; 0
  78:	a0 e6       	ldi	r26, 0x60	; 96
  7a:	b0 e0       	ldi	r27, 0x00	; 0
  7c:	01 c0       	rjmp	.+2      	; 0x80 <.do_clear_bss_start>

0000007e <.do_clear_bss_loop>:
  7e:	1d 92       	st	X+, r1

00000080 <.do_clear_bss_start>:
  80:	a8 36       	cpi	r26, 0x68	; 104
  82:	b2 07       	cpc	r27, r18
  84:	e1 f7       	brne	.-8      	; 0x7e <.do_clear_bss_loop>
  86:	0e 94 49 00 	call	0x92	; 0x92 <main>
  8a:	0c 94 f0 00 	jmp	0x1e0	; 0x1e0 <_exit>

0000008e <__bad_interrupt>:
  8e:	0c 94 00 00 	jmp	0	; 0x0 <__vectors>

00000092 <main>:

u8* NumToArr(u16 num);


int main(void)
{
  92:	ff cf       	rjmp	.-2      	; 0x92 <main>

00000094 <__vector_16>:
void ADC_SetCallBack(void (*CALLBACK)(void))
{
	ADC_CALLBACK = CALLBACK;
}
void __vector_16 (void)
{
  94:	1f 92       	push	r1
  96:	0f 92       	push	r0
  98:	0f b6       	in	r0, 0x3f	; 63
  9a:	0f 92       	push	r0
  9c:	11 24       	eor	r1, r1
  9e:	2f 93       	push	r18
  a0:	3f 93       	push	r19
  a2:	4f 93       	push	r20
  a4:	5f 93       	push	r21
  a6:	6f 93       	push	r22
  a8:	7f 93       	push	r23
  aa:	8f 93       	push	r24
  ac:	9f 93       	push	r25
  ae:	af 93       	push	r26
  b0:	bf 93       	push	r27
  b2:	ef 93       	push	r30
  b4:	ff 93       	push	r31
	ADC_CALLBACK();
  b6:	e0 91 60 00 	lds	r30, 0x0060	; 0x800060 <__DATA_REGION_ORIGIN__>
  ba:	f0 91 61 00 	lds	r31, 0x0061	; 0x800061 <__DATA_REGION_ORIGIN__+0x1>
  be:	09 95       	icall
}
  c0:	ff 91       	pop	r31
  c2:	ef 91       	pop	r30
  c4:	bf 91       	pop	r27
  c6:	af 91       	pop	r26
  c8:	9f 91       	pop	r25
  ca:	8f 91       	pop	r24
  cc:	7f 91       	pop	r23
  ce:	6f 91       	pop	r22
  d0:	5f 91       	pop	r21
  d2:	4f 91       	pop	r20
  d4:	3f 91       	pop	r19
  d6:	2f 91       	pop	r18
  d8:	0f 90       	pop	r0
  da:	0f be       	out	0x3f, r0	; 63
  dc:	0f 90       	pop	r0
  de:	1f 90       	pop	r1
  e0:	18 95       	reti

000000e2 <__vector_1>:
void EXTI0_SetCallBack(void ( *func)(void) )
{
	func_CallBack = func;
}

void __vector_1 (void){
  e2:	1f 92       	push	r1
  e4:	0f 92       	push	r0
  e6:	0f b6       	in	r0, 0x3f	; 63
  e8:	0f 92       	push	r0
  ea:	11 24       	eor	r1, r1
  ec:	2f 93       	push	r18
  ee:	3f 93       	push	r19
  f0:	4f 93       	push	r20
  f2:	5f 93       	push	r21
  f4:	6f 93       	push	r22
  f6:	7f 93       	push	r23
  f8:	8f 93       	push	r24
  fa:	9f 93       	push	r25
  fc:	af 93       	push	r26
  fe:	bf 93       	push	r27
 100:	ef 93       	push	r30
 102:	ff 93       	push	r31
	func_CallBack();
 104:	e0 91 62 00 	lds	r30, 0x0062	; 0x800062 <func_CallBack>
 108:	f0 91 63 00 	lds	r31, 0x0063	; 0x800063 <func_CallBack+0x1>
 10c:	09 95       	icall
 10e:	ff 91       	pop	r31
 110:	ef 91       	pop	r30
 112:	bf 91       	pop	r27
 114:	af 91       	pop	r26
 116:	9f 91       	pop	r25
 118:	8f 91       	pop	r24
 11a:	7f 91       	pop	r23
 11c:	6f 91       	pop	r22
 11e:	5f 91       	pop	r21
 120:	4f 91       	pop	r20
 122:	3f 91       	pop	r19
 124:	2f 91       	pop	r18
 126:	0f 90       	pop	r0
 128:	0f be       	out	0x3f, r0	; 63
 12a:	0f 90       	pop	r0
 12c:	1f 90       	pop	r1
 12e:	18 95       	reti

00000130 <__vector_2>:
{
	func_CallBack = func;
}

void __vector_2 (void)
{
 130:	1f 92       	push	r1
 132:	0f 92       	push	r0
 134:	0f b6       	in	r0, 0x3f	; 63
 136:	0f 92       	push	r0
 138:	11 24       	eor	r1, r1
 13a:	2f 93       	push	r18
 13c:	3f 93       	push	r19
 13e:	4f 93       	push	r20
 140:	5f 93       	push	r21
 142:	6f 93       	push	r22
 144:	7f 93       	push	r23
 146:	8f 93       	push	r24
 148:	9f 93       	push	r25
 14a:	af 93       	push	r26
 14c:	bf 93       	push	r27
 14e:	ef 93       	push	r30
 150:	ff 93       	push	r31
	func_CallBack();	
 152:	e0 91 64 00 	lds	r30, 0x0064	; 0x800064 <func_CallBack>
 156:	f0 91 65 00 	lds	r31, 0x0065	; 0x800065 <func_CallBack+0x1>
 15a:	09 95       	icall
 15c:	ff 91       	pop	r31
 15e:	ef 91       	pop	r30
 160:	bf 91       	pop	r27
 162:	af 91       	pop	r26
 164:	9f 91       	pop	r25
 166:	8f 91       	pop	r24
 168:	7f 91       	pop	r23
 16a:	6f 91       	pop	r22
 16c:	5f 91       	pop	r21
 16e:	4f 91       	pop	r20
 170:	3f 91       	pop	r19
 172:	2f 91       	pop	r18
 174:	0f 90       	pop	r0
 176:	0f be       	out	0x3f, r0	; 63
 178:	0f 90       	pop	r0
 17a:	1f 90       	pop	r1
 17c:	18 95       	reti

0000017e <__vector_10>:
{
	CLR_BIT(TIFR_Register,0);
	FUNC_PTR = CallBackFuch;
}
void __vector_10(void)
{
 17e:	1f 92       	push	r1
 180:	0f 92       	push	r0
 182:	0f b6       	in	r0, 0x3f	; 63
 184:	0f 92       	push	r0
 186:	11 24       	eor	r1, r1
	//FUNC_PTR();
}
 188:	0f 90       	pop	r0
 18a:	0f be       	out	0x3f, r0	; 63
 18c:	0f 90       	pop	r0
 18e:	1f 90       	pop	r1
 190:	18 95       	reti

00000192 <__vector_11>:
void __vector_11(void)
{
 192:	1f 92       	push	r1
 194:	0f 92       	push	r0
 196:	0f b6       	in	r0, 0x3f	; 63
 198:	0f 92       	push	r0
 19a:	11 24       	eor	r1, r1
 19c:	2f 93       	push	r18
 19e:	3f 93       	push	r19
 1a0:	4f 93       	push	r20
 1a2:	5f 93       	push	r21
 1a4:	6f 93       	push	r22
 1a6:	7f 93       	push	r23
 1a8:	8f 93       	push	r24
 1aa:	9f 93       	push	r25
 1ac:	af 93       	push	r26
 1ae:	bf 93       	push	r27
 1b0:	ef 93       	push	r30
 1b2:	ff 93       	push	r31
	FUNC_PTR();
 1b4:	e0 91 66 00 	lds	r30, 0x0066	; 0x800066 <FUNC_PTR>
 1b8:	f0 91 67 00 	lds	r31, 0x0067	; 0x800067 <FUNC_PTR+0x1>
 1bc:	09 95       	icall
}
 1be:	ff 91       	pop	r31
 1c0:	ef 91       	pop	r30
 1c2:	bf 91       	pop	r27
 1c4:	af 91       	pop	r26
 1c6:	9f 91       	pop	r25
 1c8:	8f 91       	pop	r24
 1ca:	7f 91       	pop	r23
 1cc:	6f 91       	pop	r22
 1ce:	5f 91       	pop	r21
 1d0:	4f 91       	pop	r20
 1d2:	3f 91       	pop	r19
 1d4:	2f 91       	pop	r18
 1d6:	0f 90       	pop	r0
 1d8:	0f be       	out	0x3f, r0	; 63
 1da:	0f 90       	pop	r0
 1dc:	1f 90       	pop	r1
 1de:	18 95       	reti

000001e0 <_exit>:
 1e0:	f8 94       	cli

000001e2 <__stop_program>:
 1e2:	ff cf       	rjmp	.-2      	; 0x1e2 <__stop_program>
